ccopy_reg
_reconstructor
p0
(cnltk.classify.naivebayes
NaiveBayesClassifier
p1
c__builtin__
object
p2
Ntp3
Rp4
(dp5
S'_labels'
p6
(lp7
S'neg'
p8
aS'neu'
p9
aS'pos'
p10
asS'_feature_probdist'
p11
(dp12
(g8
S'corpus'
p13
tp14
g0
(cnltk.probability
ELEProbDist
p15
g2
Ntp16
Rp17
(dp18
S'_gamma'
p19
F0.5
sS'_N'
p20
I1
sS'_freqdist'
p21
g0
(cnltk.probability
FreqDist
p22
c__builtin__
dict
p23
(dp24
NI1
stp25
Rp26
(dp27
g20
I1
sS'_max_cache'
p28
NsS'_item_cache'
p29
NsS'_Nr_cache'
p30
NsbsS'_bins'
p31
I2
sS'_divisor'
p32
F2.0
sbs(g10
S'not'
p33
tp34
g0
(g15
g2
Ntp35
Rp36
(dp37
g19
F0.5
sg20
I1
sg21
g0
(g22
g23
(dp38
NI1
stp39
Rp40
(dp41
g20
I1
sg28
Nsg29
Nsg30
Nsbsg31
I2
sg32
F2.0
sbs(g10
S'overjoyed'
p42
tp43
g0
(g15
g2
Ntp44
Rp45
(dp46
g19
F0.5
sg20
I1
sg21
g0
(g22
g23
(dp47
I01
I1
stp48
Rp49
(dp50
g20
I1
sg28
Nsg29
Nsg30
Nsbsg31
I2
sg32
F2.0
sbs(g8
S'excited'
p51
tp52
g0
(g15
g2
Ntp53
Rp54
(dp55
g19
F0.5
sg20
I1
sg21
g0
(g22
g23
(dp56
NI1
stp57
Rp58
(dp59
g20
I1
sg28
Nsg29
Nsg30
Nsbsg31
I2
sg32
F2.0
sbs(g10
S'doing'
p60
tp61
g0
(g15
g2
Ntp62
Rp63
(dp64
g19
F0.5
sg20
I1
sg21
g0
(g22
g23
(dp65
NI1
stp66
Rp67
(dp68
g20
I1
sg28
Nsg29
Nsg30
Nsbsg31
I2
sg32
F2.0
sbs(g9
S'happy'
p69
tp70
g0
(g15
g2
Ntp71
Rp72
(dp73
g19
F0.5
sg20
I1
sg21
g0
(g22
g23
(dp74
NI1
stp75
Rp76
(dp77
g20
I1
sg28
Nsg29
Nsg30
Nsbsg31
I2
sg32
F2.0
sbs(g10
S'do'
p78
tp79
g0
(g15
g2
Ntp80
Rp81
(dp82
g19
F0.5
sg20
I1
sg21
g0
(g22
g23
(dp83
I01
I1
stp84
Rp85
(dp86
g20
I1
sg28
Nsg29
Nsg30
Nsbsg31
I2
sg32
F2.0
sbs(g9
g78
tp87
g0
(g15
g2
Ntp88
Rp89
(dp90
g19
F0.5
sg20
I1
sg21
g0
(g22
g23
(dp91
NI1
stp92
Rp93
(dp94
g20
I1
sg28
Nsg29
Nsg30
Nsbsg31
I2
sg32
F2.0
sbs(g9
S'so'
p95
tp96
g0
(g15
g2
Ntp97
Rp98
(dp99
g19
F0.5
sg20
I1
sg21
g0
(g22
g23
(dp100
NI1
stp101
Rp102
(dp103
g20
I1
sg28
Nsg29
Nsg30
Nsbsg31
I2
sg32
F2.0
sbs(g10
g13
tp104
g0
(g15
g2
Ntp105
Rp106
(dp107
g19
F0.5
sg20
I1
sg21
g0
(g22
g23
(dp108
I01
I1
stp109
Rp110
(dp111
g20
I1
sg28
Nsg29
Nsg30
Nsbsg31
I2
sg32
F2.0
sbs(g10
S'whole'
p112
tp113
g0
(g15
g2
Ntp114
Rp115
(dp116
g19
F0.5
sg20
I1
sg21
g0
(g22
g23
(dp117
NI1
stp118
Rp119
(dp120
g20
I1
sg28
Nsg29
Nsg30
Nsbsg31
I2
sg32
F2.0
sbs(g9
S'?'
p121
tp122
g0
(g15
g2
Ntp123
Rp124
(dp125
g19
F0.5
sg20
I1
sg21
g0
(g22
g23
(dp126
NI1
stp127
Rp128
(dp129
g20
I1
sg28
Nsg29
Nsg30
Nsbsg31
I2
sg32
F2.0
sbs(g10
g121
tp130
g0
(g15
g2
Ntp131
Rp132
(dp133
g19
F0.5
sg20
I1
sg21
g0
(g22
g23
(dp134
NI1
stp135
Rp136
(dp137
g20
I1
sg28
Nsg29
Nsg30
Nsbsg31
I2
sg32
F2.0
sbs(g10
S'done'
p138
tp139
g0
(g15
g2
Ntp140
Rp141
(dp142
g19
F0.5
sg20
I1
sg21
g0
(g22
g23
(dp143
I01
I1
stp144
Rp145
(dp146
g20
I1
sg28
Nsg29
Nsg30
Nsbsg31
I2
sg32
F2.0
sbs(g8
S'sentence'
p147
tp148
g0
(g15
g2
Ntp149
Rp150
(dp151
g19
F0.5
sg20
I1
sg21
g0
(g22
g23
(dp152
NI1
stp153
Rp154
(dp155
g20
I1
sg28
Nsg29
Nsg30
Nsbsg31
I2
sg32
F2.0
sbs(g9
g112
tp156
g0
(g15
g2
Ntp157
Rp158
(dp159
g19
F0.5
sg20
I1
sg21
g0
(g22
g23
(dp160
I01
I1
stp161
Rp162
(dp163
g20
I1
sg28
Nsg29
Nsg30
Nsbsg31
I2
sg32
F2.0
sbs(g8
S'm'
p164
tp165
g0
(g15
g2
Ntp166
Rp167
(dp168
g19
F0.5
sg20
I1
sg21
g0
(g22
g23
(dp169
NI1
stp170
Rp171
(dp172
g20
I1
sg28
Nsg29
Nsg30
Nsbsg31
I2
sg32
F2.0
sbs(g10
S'testing'
p173
tp174
g0
(g15
g2
Ntp175
Rp176
(dp177
g19
F0.5
sg20
I1
sg21
g0
(g22
g23
(dp178
I01
I1
stp179
Rp180
(dp181
g20
I1
sg28
Nsg29
Nsg30
Nsbsg31
I2
sg32
F2.0
sbs(g9
g13
tp182
g0
(g15
g2
Ntp183
Rp184
(dp185
g19
F0.5
sg20
I1
sg21
g0
(g22
g23
(dp186
NI1
stp187
Rp188
(dp189
g20
I1
sg28
Nsg29
Nsg30
Nsbsg31
I2
sg32
F2.0
sbs(g9
S'.'
p190
tp191
g0
(g15
g2
Ntp192
Rp193
(dp194
g19
F0.5
sg20
I1
sg21
g0
(g22
g23
(dp195
I01
I1
stp196
Rp197
(dp198
g20
I1
sg28
Nsg29
Nsg30
Nsbsg31
I2
sg32
F2.0
sbs(g8
S'this'
p199
tp200
g0
(g15
g2
Ntp201
Rp202
(dp203
g19
F0.5
sg20
I1
sg21
g0
(g22
g23
(dp204
I01
I1
stp205
Rp206
(dp207
g20
I1
sg28
Nsg29
Nsg30
Nsbsg31
I2
sg32
F2.0
sbs(g8
S'hate'
p208
tp209
g0
(g15
g2
Ntp210
Rp211
(dp212
g19
F0.5
sg20
I1
sg21
g0
(g22
g23
(dp213
I01
I1
stp214
Rp215
(dp216
g20
I1
sg28
Nsg29
Nsg30
Nsbsg31
I2
sg32
F2.0
sbs(g10
g208
tp217
g0
(g15
g2
Ntp218
Rp219
(dp220
g19
F0.5
sg20
I1
sg21
g0
(g22
g23
(dp221
NI1
stp222
Rp223
(dp224
g20
I1
sg28
Nsg29
Nsg30
Nsbsg31
I2
sg32
F2.0
sbs(g9
S'to'
p225
tp226
g0
(g15
g2
Ntp227
Rp228
(dp229
g19
F0.5
sg20
I1
sg21
g0
(g22
g23
(dp230
NI1
stp231
Rp232
(dp233
g20
I1
sg28
Nsg29
Nsg30
Nsbsg31
I2
sg32
F2.0
sbs(g10
S'I'
p234
tp235
g0
(g15
g2
Ntp236
Rp237
(dp238
g19
F0.5
sg20
I1
sg21
g0
(g22
g23
(dp239
I01
I1
stp240
Rp241
(dp242
g20
I1
sg28
Nsg29
Nsg30
Nsbsg31
I2
sg32
F2.0
sbs(g9
S'This'
p243
tp244
g0
(g15
g2
Ntp245
Rp246
(dp247
g19
F0.5
sg20
I1
sg21
g0
(g22
g23
(dp248
I01
I1
stp249
Rp250
(dp251
g20
I1
sg28
Nsg29
Nsg30
Nsbsg31
I2
sg32
F2.0
sbs(g8
g138
tp252
g0
(g15
g2
Ntp253
Rp254
(dp255
g19
F0.5
sg20
I1
sg21
g0
(g22
g23
(dp256
NI1
stp257
Rp258
(dp259
g20
I1
sg28
Nsg29
Nsg30
Nsbsg31
I2
sg32
F2.0
sbs(g8
S'This'
p260
tp261
g0
(g15
g2
Ntp262
Rp263
(dp264
g19
F0.5
sg20
I1
sg21
g0
(g22
g23
(dp265
I01
I1
stp266
Rp267
(dp268
g20
I1
sg28
Nsg29
Nsg30
Nsbsg31
I2
sg32
F2.0
sbs(g10
S'working'
p269
tp270
g0
(g15
g2
Ntp271
Rp272
(dp273
g19
F0.5
sg20
I1
sg21
g0
(g22
g23
(dp274
NI1
stp275
Rp276
(dp277
g20
I1
sg28
Nsg29
Nsg30
Nsbsg31
I2
sg32
F2.0
sbs(g10
S'get'
p278
tp279
g0
(g15
g2
Ntp280
Rp281
(dp282
g19
F0.5
sg20
I1
sg21
g0
(g22
g23
(dp283
I01
I1
stp284
Rp285
(dp286
g20
I1
sg28
Nsg29
Nsg30
Nsbsg31
I2
sg32
F2.0
sbs(g10
S'this'
p287
tp288
g0
(g15
g2
Ntp289
Rp290
(dp291
g19
F0.5
sg20
I1
sg21
g0
(g22
g23
(dp292
I01
I1
stp293
Rp294
(dp295
g20
I1
sg28
Nsg29
Nsg30
Nsbsg31
I2
sg32
F2.0
sbs(g9
g199
tp296
g0
(g15
g2
Ntp297
Rp298
(dp299
g19
F0.5
sg20
I1
sg21
g0
(g22
g23
(dp300
NI1
stp301
Rp302
(dp303
g20
I1
sg28
Nsg29
Nsg30
Nsbsg31
I2
sg32
F2.0
sbs(g9
S'file'
p304
tp305
g0
(g15
g2
Ntp306
Rp307
(dp308
g19
F0.5
sg20
I1
sg21
g0
(g22
g23
(dp309
I01
I1
stp310
Rp311
(dp312
g20
I1
sg28
Nsg29
Nsg30
Nsbsg31
I2
sg32
F2.0
sbs(g10
g304
tp313
g0
(g15
g2
Ntp314
Rp315
(dp316
g19
F0.5
sg20
I1
sg21
g0
(g22
g23
(dp317
NI1
stp318
Rp319
(dp320
g20
I1
sg28
Nsg29
Nsg30
Nsbsg31
I2
sg32
F2.0
sbs(g8
S'rather'
p321
tp322
g0
(g15
g2
Ntp323
Rp324
(dp325
g19
F0.5
sg20
I1
sg21
g0
(g22
g23
(dp326
NI1
stp327
Rp328
(dp329
g20
I1
sg28
Nsg29
Nsg30
Nsbsg31
I2
sg32
F2.0
sbs(g9
g147
tp330
g0
(g15
g2
Ntp331
Rp332
(dp333
g19
F0.5
sg20
I1
sg21
g0
(g22
g23
(dp334
I01
I1
stp335
Rp336
(dp337
g20
I1
sg28
Nsg29
Nsg30
Nsbsg31
I2
sg32
F2.0
sbs(g8
S'makes'
p338
tp339
g0
(g15
g2
Ntp340
Rp341
(dp342
g19
F0.5
sg20
I1
sg21
g0
(g22
g23
(dp343
NI1
stp344
Rp345
(dp346
g20
I1
sg28
Nsg29
Nsg30
Nsbsg31
I2
sg32
F2.0
sbs(g9
S'difficult'
p347
tp348
g0
(g15
g2
Ntp349
Rp350
(dp351
g19
F0.5
sg20
I1
sg21
g0
(g22
g23
(dp352
NI1
stp353
Rp354
(dp355
g20
I1
sg28
Nsg29
Nsg30
Nsbsg31
I2
sg32
F2.0
sbs(g10
S'so'
p356
tp357
g0
(g15
g2
Ntp358
Rp359
(dp360
g19
F0.5
sg20
I1
sg21
g0
(g22
g23
(dp361
I01
I1
stp362
Rp363
(dp364
g20
I1
sg28
Nsg29
Nsg30
Nsbsg31
I2
sg32
F2.0
sbs(g10
g347
tp365
g0
(g15
g2
Ntp366
Rp367
(dp368
g19
F0.5
sg20
I1
sg21
g0
(g22
g23
(dp369
NI1
stp370
Rp371
(dp372
g20
I1
sg28
Nsg29
Nsg30
Nsbsg31
I2
sg32
F2.0
sbs(g8
g278
tp373
g0
(g15
g2
Ntp374
Rp375
(dp376
g19
F0.5
sg20
I1
sg21
g0
(g22
g23
(dp377
NI1
stp378
Rp379
(dp380
g20
I1
sg28
Nsg29
Nsg30
Nsbsg31
I2
sg32
F2.0
sbs(g9
S'!'
p381
tp382
g0
(g15
g2
Ntp383
Rp384
(dp385
g19
F0.5
sg20
I1
sg21
g0
(g22
g23
(dp386
NI1
stp387
Rp388
(dp389
g20
I1
sg28
Nsg29
Nsg30
Nsbsg31
I2
sg32
F2.0
sbs(g8
g304
tp390
g0
(g15
g2
Ntp391
Rp392
(dp393
g19
F0.5
sg20
I1
sg21
g0
(g22
g23
(dp394
NI1
stp395
Rp396
(dp397
g20
I1
sg28
Nsg29
Nsg30
Nsbsg31
I2
sg32
F2.0
sbs(g10
g225
tp398
g0
(g15
g2
Ntp399
Rp400
(dp401
g19
F0.5
sg20
I1
sg21
g0
(g22
g23
(dp402
I01
I1
stp403
Rp404
(dp405
g20
I1
sg28
Nsg29
Nsg30
Nsbsg31
I2
sg32
F2.0
sbs(g10
g338
tp406
g0
(g15
g2
Ntp407
Rp408
(dp409
g19
F0.5
sg20
I1
sg21
g0
(g22
g23
(dp410
I01
I1
stp411
Rp412
(dp413
g20
I1
sg28
Nsg29
Nsg30
Nsbsg31
I2
sg32
F2.0
sbs(g8
g225
tp414
g0
(g15
g2
Ntp415
Rp416
(dp417
g19
F0.5
sg20
I1
sg21
g0
(g22
g23
(dp418
NI1
stp419
Rp420
(dp421
g20
I1
sg28
Nsg29
Nsg30
Nsbsg31
I2
sg32
F2.0
sbs(g10
g321
tp422
g0
(g15
g2
Ntp423
Rp424
(dp425
g19
F0.5
sg20
I1
sg21
g0
(g22
g23
(dp426
NI1
stp427
Rp428
(dp429
g20
I1
sg28
Nsg29
Nsg30
Nsbsg31
I2
sg32
F2.0
sbs(g8
S'Everybody'
p430
tp431
g0
(g15
g2
Ntp432
Rp433
(dp434
g19
F0.5
sg20
I1
sg21
g0
(g22
g23
(dp435
NI1
stp436
Rp437
(dp438
g20
I1
sg28
Nsg29
Nsg30
Nsbsg31
I2
sg32
F2.0
sbs(g9
g138
tp439
g0
(g15
g2
Ntp440
Rp441
(dp442
g19
F0.5
sg20
I1
sg21
g0
(g22
g23
(dp443
NI1
stp444
Rp445
(dp446
g20
I1
sg28
Nsg29
Nsg30
Nsbsg31
I2
sg32
F2.0
sbs(g10
S's'
p447
tp448
g0
(g15
g2
Ntp449
Rp450
(dp451
g19
F0.5
sg20
I1
sg21
g0
(g22
g23
(dp452
I01
I1
stp453
Rp454
(dp455
g20
I1
sg28
Nsg29
Nsg30
Nsbsg31
I2
sg32
F2.0
sbs(g8
g447
tp456
g0
(g15
g2
Ntp457
Rp458
(dp459
g19
F0.5
sg20
I1
sg21
g0
(g22
g23
(dp460
NI1
stp461
Rp462
(dp463
g20
I1
sg28
Nsg29
Nsg30
Nsbsg31
I2
sg32
F2.0
sbs(g9
g208
tp464
g0
(g15
g2
Ntp465
Rp466
(dp467
g19
F0.5
sg20
I1
sg21
g0
(g22
g23
(dp468
NI1
stp469
Rp470
(dp471
g20
I1
sg28
Nsg29
Nsg30
Nsbsg31
I2
sg32
F2.0
sbs(g10
S'a'
p472
tp473
g0
(g15
g2
Ntp474
Rp475
(dp476
g19
F0.5
sg20
I1
sg21
g0
(g22
g23
(dp477
NI1
stp478
Rp479
(dp480
g20
I1
sg28
Nsg29
Nsg30
Nsbsg31
I2
sg32
F2.0
sbs(g8
g472
tp481
g0
(g15
g2
Ntp482
Rp483
(dp484
g19
F0.5
sg20
I1
sg21
g0
(g22
g23
(dp485
NI1
stp486
Rp487
(dp488
g20
I1
sg28
Nsg29
Nsg30
Nsbsg31
I2
sg32
F2.0
sbs(g10
g190
tp489
g0
(g15
g2
Ntp490
Rp491
(dp492
g19
F0.5
sg20
I1
sg21
g0
(g22
g23
(dp493
I01
I1
stp494
Rp495
(dp496
g20
I1
sg28
Nsg29
Nsg30
Nsbsg31
I2
sg32
F2.0
sbs(g10
S"'"
p497
tp498
g0
(g15
g2
Ntp499
Rp500
(dp501
g19
F0.5
sg20
I1
sg21
g0
(g22
g23
(dp502
I01
I1
stp503
Rp504
(dp505
g20
I1
sg28
Nsg29
Nsg30
Nsbsg31
I2
sg32
F2.0
sbs(g8
g121
tp506
g0
(g15
g2
Ntp507
Rp508
(dp509
g19
F0.5
sg20
I1
sg21
g0
(g22
g23
(dp510
I01
I1
stp511
Rp512
(dp513
g20
I1
sg28
Nsg29
Nsg30
Nsbsg31
I2
sg32
F2.0
sbs(g9
g60
tp514
g0
(g15
g2
Ntp515
Rp516
(dp517
g19
F0.5
sg20
I1
sg21
g0
(g22
g23
(dp518
NI1
stp519
Rp520
(dp521
g20
I1
sg28
Nsg29
Nsg30
Nsbsg31
I2
sg32
F2.0
sbs(g8
g33
tp522
g0
(g15
g2
Ntp523
Rp524
(dp525
g19
F0.5
sg20
I1
sg21
g0
(g22
g23
(dp526
I01
I1
stp527
Rp528
(dp529
g20
I1
sg28
Nsg29
Nsg30
Nsbsg31
I2
sg32
F2.0
sbs(g10
g69
tp530
g0
(g15
g2
Ntp531
Rp532
(dp533
g19
F0.5
sg20
I1
sg21
g0
(g22
g23
(dp534
I01
I1
stp535
Rp536
(dp537
g20
I1
sg28
Nsg29
Nsg30
Nsbsg31
I2
sg32
F2.0
sbs(g8
g497
tp538
g0
(g15
g2
Ntp539
Rp540
(dp541
g19
F0.5
sg20
I1
sg21
g0
(g22
g23
(dp542
NI1
stp543
Rp544
(dp545
g20
I1
sg28
Nsg29
Nsg30
Nsbsg31
I2
sg32
F2.0
sbs(g8
g60
tp546
g0
(g15
g2
Ntp547
Rp548
(dp549
g19
F0.5
sg20
I1
sg21
g0
(g22
g23
(dp550
I01
I1
stp551
Rp552
(dp553
g20
I1
sg28
Nsg29
Nsg30
Nsbsg31
I2
sg32
F2.0
sbs(g10
g147
tp554
g0
(g15
g2
Ntp555
Rp556
(dp557
g19
F0.5
sg20
I1
sg21
g0
(g22
g23
(dp558
NI1
stp559
Rp560
(dp561
g20
I1
sg28
Nsg29
Nsg30
Nsbsg31
I2
sg32
F2.0
sbs(g9
g497
tp562
g0
(g15
g2
Ntp563
Rp564
(dp565
g19
F0.5
sg20
I1
sg21
g0
(g22
g23
(dp566
NI1
stp567
Rp568
(dp569
g20
I1
sg28
Nsg29
Nsg30
Nsbsg31
I2
sg32
F2.0
sbs(g9
S'is'
p570
tp571
g0
(g15
g2
Ntp572
Rp573
(dp574
g19
F0.5
sg20
I1
sg21
g0
(g22
g23
(dp575
I01
I1
stp576
Rp577
(dp578
g20
I1
sg28
Nsg29
Nsg30
Nsbsg31
I2
sg32
F2.0
sbs(g8
S'testing'
p579
tp580
g0
(g15
g2
Ntp581
Rp582
(dp583
g19
F0.5
sg20
I1
sg21
g0
(g22
g23
(dp584
I01
I1
stp585
Rp586
(dp587
g20
I1
sg28
Nsg29
Nsg30
Nsbsg31
I2
sg32
F2.0
sbs(g10
g51
tp588
g0
(g15
g2
Ntp589
Rp590
(dp591
g19
F0.5
sg20
I1
sg21
g0
(g22
g23
(dp592
I01
I1
stp593
Rp594
(dp595
g20
I1
sg28
Nsg29
Nsg30
Nsbsg31
I2
sg32
F2.0
sbs(g10
S'This'
p596
tp597
g0
(g15
g2
Ntp598
Rp599
(dp600
g19
F0.5
sg20
I1
sg21
g0
(g22
g23
(dp601
I01
I1
stp602
Rp603
(dp604
g20
I1
sg28
Nsg29
Nsg30
Nsbsg31
I2
sg32
F2.0
sbs(g8
g347
tp605
g0
(g15
g2
Ntp606
Rp607
(dp608
g19
F0.5
sg20
I1
sg21
g0
(g22
g23
(dp609
I01
I1
stp610
Rp611
(dp612
g20
I1
sg28
Nsg29
Nsg30
Nsbsg31
I2
sg32
F2.0
sbs(g9
g234
tp613
g0
(g15
g2
Ntp614
Rp615
(dp616
g19
F0.5
sg20
I1
sg21
g0
(g22
g23
(dp617
NI1
stp618
Rp619
(dp620
g20
I1
sg28
Nsg29
Nsg30
Nsbsg31
I2
sg32
F2.0
sbs(g8
g269
tp621
g0
(g15
g2
Ntp622
Rp623
(dp624
g19
F0.5
sg20
I1
sg21
g0
(g22
g23
(dp625
I01
I1
stp626
Rp627
(dp628
g20
I1
sg28
Nsg29
Nsg30
Nsbsg31
I2
sg32
F2.0
sbs(g10
S'me'
p629
tp630
g0
(g15
g2
Ntp631
Rp632
(dp633
g19
F0.5
sg20
I1
sg21
g0
(g22
g23
(dp634
I01
I1
stp635
Rp636
(dp637
g20
I1
sg28
Nsg29
Nsg30
Nsbsg31
I2
sg32
F2.0
sbs(g9
S'Why'
p638
tp639
g0
(g15
g2
Ntp640
Rp641
(dp642
g19
F0.5
sg20
I1
sg21
g0
(g22
g23
(dp643
NI1
stp644
Rp645
(dp646
g20
I1
sg28
Nsg29
Nsg30
Nsbsg31
I2
sg32
F2.0
sbs(g9
g629
tp647
g0
(g15
g2
Ntp648
Rp649
(dp650
g19
F0.5
sg20
I1
sg21
g0
(g22
g23
(dp651
NI1
stp652
Rp653
(dp654
g20
I1
sg28
Nsg29
Nsg30
Nsbsg31
I2
sg32
F2.0
sbs(g8
g629
tp655
g0
(g15
g2
Ntp656
Rp657
(dp658
g19
F0.5
sg20
I1
sg21
g0
(g22
g23
(dp659
NI1
stp660
Rp661
(dp662
g20
I1
sg28
Nsg29
Nsg30
Nsbsg31
I2
sg32
F2.0
sbs(g8
g78
tp663
g0
(g15
g2
Ntp664
Rp665
(dp666
g19
F0.5
sg20
I1
sg21
g0
(g22
g23
(dp667
NI1
stp668
Rp669
(dp670
g20
I1
sg28
Nsg29
Nsg30
Nsbsg31
I2
sg32
F2.0
sbs(g8
g638
tp671
g0
(g15
g2
Ntp672
Rp673
(dp674
g19
F0.5
sg20
I1
sg21
g0
(g22
g23
(dp675
I01
I1
stp676
Rp677
(dp678
g20
I1
sg28
Nsg29
Nsg30
Nsbsg31
I2
sg32
F2.0
sbs(g8
g42
tp679
g0
(g15
g2
Ntp680
Rp681
(dp682
g19
F0.5
sg20
I1
sg21
g0
(g22
g23
(dp683
NI1
stp684
Rp685
(dp686
g20
I1
sg28
Nsg29
Nsg30
Nsbsg31
I2
sg32
F2.0
sbs(g8
g234
tp687
g0
(g15
g2
Ntp688
Rp689
(dp690
g19
F0.5
sg20
I1
sg21
g0
(g22
g23
(dp691
I01
I1
stp692
Rp693
(dp694
g20
I1
sg28
Nsg29
Nsg30
Nsbsg31
I2
sg32
F2.0
sbs(g9
g164
tp695
g0
(g15
g2
Ntp696
Rp697
(dp698
g19
F0.5
sg20
I1
sg21
g0
(g22
g23
(dp699
NI1
stp700
Rp701
(dp702
g20
I1
sg28
Nsg29
Nsg30
Nsbsg31
I2
sg32
F2.0
sbs(g8
g112
tp703
g0
(g15
g2
Ntp704
Rp705
(dp706
g19
F0.5
sg20
I1
sg21
g0
(g22
g23
(dp707
NI1
stp708
Rp709
(dp710
g20
I1
sg28
Nsg29
Nsg30
Nsbsg31
I2
sg32
F2.0
sbs(g10
g430
tp711
g0
(g15
g2
Ntp712
Rp713
(dp714
g19
F0.5
sg20
I1
sg21
g0
(g22
g23
(dp715
I01
I1
stp716
Rp717
(dp718
g20
I1
sg28
Nsg29
Nsg30
Nsbsg31
I2
sg32
F2.0
sbs(g9
g430
tp719
g0
(g15
g2
Ntp720
Rp721
(dp722
g19
F0.5
sg20
I1
sg21
g0
(g22
g23
(dp723
NI1
stp724
Rp725
(dp726
g20
I1
sg28
Nsg29
Nsg30
Nsbsg31
I2
sg32
F2.0
sbs(g10
g164
tp727
g0
(g15
g2
Ntp728
Rp729
(dp730
g19
F0.5
sg20
I1
sg21
g0
(g22
g23
(dp731
I01
I1
stp732
Rp733
(dp734
g20
I1
sg28
Nsg29
Nsg30
Nsbsg31
I2
sg32
F2.0
sbs(g8
g95
tp735
g0
(g15
g2
Ntp736
Rp737
(dp738
g19
F0.5
sg20
I1
sg21
g0
(g22
g23
(dp739
I01
I1
stp740
Rp741
(dp742
g20
I1
sg28
Nsg29
Nsg30
Nsbsg31
I2
sg32
F2.0
sbs(g10
S'ecstatic'
p743
tp744
g0
(g15
g2
Ntp745
Rp746
(dp747
g19
F0.5
sg20
I1
sg21
g0
(g22
g23
(dp748
I01
I1
stp749
Rp750
(dp751
g20
I1
sg28
Nsg29
Nsg30
Nsbsg31
I2
sg32
F2.0
sbs(g9
g42
tp752
g0
(g15
g2
Ntp753
Rp754
(dp755
g19
F0.5
sg20
I1
sg21
g0
(g22
g23
(dp756
NI1
stp757
Rp758
(dp759
g20
I1
sg28
Nsg29
Nsg30
Nsbsg31
I2
sg32
F2.0
sbs(g10
g381
tp760
g0
(g15
g2
Ntp761
Rp762
(dp763
g19
F0.5
sg20
I1
sg21
g0
(g22
g23
(dp764
I01
I1
stp765
Rp766
(dp767
g20
I1
sg28
Nsg29
Nsg30
Nsbsg31
I2
sg32
F2.0
sbs(g8
S'is'
p768
tp769
g0
(g15
g2
Ntp770
Rp771
(dp772
g19
F0.5
sg20
I1
sg21
g0
(g22
g23
(dp773
I01
I1
stp774
Rp775
(dp776
g20
I1
sg28
Nsg29
Nsg30
Nsbsg31
I2
sg32
F2.0
sbs(g8
g381
tp777
g0
(g15
g2
Ntp778
Rp779
(dp780
g19
F0.5
sg20
I1
sg21
g0
(g22
g23
(dp781
NI1
stp782
Rp783
(dp784
g20
I1
sg28
Nsg29
Nsg30
Nsbsg31
I2
sg32
F2.0
sbs(g8
g190
tp785
g0
(g15
g2
Ntp786
Rp787
(dp788
g19
F0.5
sg20
I1
sg21
g0
(g22
g23
(dp789
I01
I1
stp790
Rp791
(dp792
g20
I1
sg28
Nsg29
Nsg30
Nsbsg31
I2
sg32
F2.0
sbs(g9
g33
tp793
g0
(g15
g2
Ntp794
Rp795
(dp796
g19
F0.5
sg20
I1
sg21
g0
(g22
g23
(dp797
NI1
stp798
Rp799
(dp800
g20
I1
sg28
Nsg29
Nsg30
Nsbsg31
I2
sg32
F2.0
sbs(g8
S'plain'
p801
tp802
g0
(g15
g2
Ntp803
Rp804
(dp805
g19
F0.5
sg20
I1
sg21
g0
(g22
g23
(dp806
NI1
stp807
Rp808
(dp809
g20
I1
sg28
Nsg29
Nsg30
Nsbsg31
I2
sg32
F2.0
sbs(g9
g579
tp810
g0
(g15
g2
Ntp811
Rp812
(dp813
g19
F0.5
sg20
I1
sg21
g0
(g22
g23
(dp814
NI1
stp815
Rp816
(dp817
g20
I1
sg28
Nsg29
Nsg30
Nsbsg31
I2
sg32
F2.0
sbs(g9
g321
tp818
g0
(g15
g2
Ntp819
Rp820
(dp821
g19
F0.5
sg20
I1
sg21
g0
(g22
g23
(dp822
I01
I1
stp823
Rp824
(dp825
g20
I1
sg28
Nsg29
Nsg30
Nsbsg31
I2
sg32
F2.0
sbs(g8
g743
tp826
g0
(g15
g2
Ntp827
Rp828
(dp829
g19
F0.5
sg20
I1
sg21
g0
(g22
g23
(dp830
NI1
stp831
Rp832
(dp833
g20
I1
sg28
Nsg29
Nsg30
Nsbsg31
I2
sg32
F2.0
sbs(g9
g269
tp834
g0
(g15
g2
Ntp835
Rp836
(dp837
g19
F0.5
sg20
I1
sg21
g0
(g22
g23
(dp838
NI1
stp839
Rp840
(dp841
g20
I1
sg28
Nsg29
Nsg30
Nsbsg31
I2
sg32
F2.0
sbs(g9
g278
tp842
g0
(g15
g2
Ntp843
Rp844
(dp845
g19
F0.5
sg20
I1
sg21
g0
(g22
g23
(dp846
NI1
stp847
Rp848
(dp849
g20
I1
sg28
Nsg29
Nsg30
Nsbsg31
I2
sg32
F2.0
sbs(g10
g638
tp850
g0
(g15
g2
Ntp851
Rp852
(dp853
g19
F0.5
sg20
I1
sg21
g0
(g22
g23
(dp854
NI1
stp855
Rp856
(dp857
g20
I1
sg28
Nsg29
Nsg30
Nsbsg31
I2
sg32
F2.0
sbs(g8
g69
tp858
g0
(g15
g2
Ntp859
Rp860
(dp861
g19
F0.5
sg20
I1
sg21
g0
(g22
g23
(dp862
NI1
stp863
Rp864
(dp865
g20
I1
sg28
Nsg29
Nsg30
Nsbsg31
I2
sg32
F2.0
sbs(g10
g801
tp866
g0
(g15
g2
Ntp867
Rp868
(dp869
g19
F0.5
sg20
I1
sg21
g0
(g22
g23
(dp870
NI1
stp871
Rp872
(dp873
g20
I1
sg28
Nsg29
Nsg30
Nsbsg31
I2
sg32
F2.0
sbs(g9
g801
tp874
g0
(g15
g2
Ntp875
Rp876
(dp877
g19
F0.5
sg20
I1
sg21
g0
(g22
g23
(dp878
I01
I1
stp879
Rp880
(dp881
g20
I1
sg28
Nsg29
Nsg30
Nsbsg31
I2
sg32
F2.0
sbs(g10
g768
tp882
g0
(g15
g2
Ntp883
Rp884
(dp885
g19
F0.5
sg20
I1
sg21
g0
(g22
g23
(dp886
NI1
stp887
Rp888
(dp889
g20
I1
sg28
Nsg29
Nsg30
Nsbsg31
I2
sg32
F2.0
sbs(g9
g51
tp890
g0
(g15
g2
Ntp891
Rp892
(dp893
g19
F0.5
sg20
I1
sg21
g0
(g22
g23
(dp894
NI1
stp895
Rp896
(dp897
g20
I1
sg28
Nsg29
Nsg30
Nsbsg31
I2
sg32
F2.0
sbs(g9
g472
tp898
g0
(g15
g2
Ntp899
Rp900
(dp901
g19
F0.5
sg20
I1
sg21
g0
(g22
g23
(dp902
I01
I1
stp903
Rp904
(dp905
g20
I1
sg28
Nsg29
Nsg30
Nsbsg31
I2
sg32
F2.0
sbs(g9
g447
tp906
g0
(g15
g2
Ntp907
Rp908
(dp909
g19
F0.5
sg20
I1
sg21
g0
(g22
g23
(dp910
NI1
stp911
Rp912
(dp913
g20
I1
sg28
Nsg29
Nsg30
Nsbsg31
I2
sg32
F2.0
sbs(g9
g743
tp914
g0
(g15
g2
Ntp915
Rp916
(dp917
g19
F0.5
sg20
I1
sg21
g0
(g22
g23
(dp918
NI1
stp919
Rp920
(dp921
g20
I1
sg28
Nsg29
Nsg30
Nsbsg31
I2
sg32
F2.0
sbs(g9
g338
tp922
g0
(g15
g2
Ntp923
Rp924
(dp925
g19
F0.5
sg20
I1
sg21
g0
(g22
g23
(dp926
NI1
stp927
Rp928
(dp929
g20
I1
sg28
Nsg29
Nsg30
Nsbsg31
I2
sg32
F2.0
sbssS'_label_probdist'
p930
g0
(g15
g2
Ntp931
Rp932
(dp933
g19
F0.5
sg20
I3
sg21
g0
(g22
g23
(dp934
g8
I1
sg9
I1
sg10
I1
stp935
Rp936
(dp937
g20
I3
sg28
Nsg29
(lp938
(g8
I1
tp939
a(g9
I1
tp940
a(g10
I1
tp941
asg30
Nsbsg31
I3
sg32
F4.5
sbsb.