ccopy_reg
_reconstructor
p0
(cnltk.classify.naivebayes
NaiveBayesClassifier
p1
c__builtin__
object
p2
Ntp3
Rp4
(dp5
S'_labels'
p6
(lp7
S'neg'
p8
aS'neu'
p9
aS'pos'
p10
asS'_feature_probdist'
p11
(dp12
(g8
S'corpus'
p13
tp14
g0
(cnltk.probability
ELEProbDist
p15
g2
Ntp16
Rp17
(dp18
S'_gamma'
p19
F0.5
sS'_N'
p20
I1
sS'_freqdist'
p21
g0
(cnltk.probability
FreqDist
p22
c__builtin__
dict
p23
(dp24
NI1
stp25
Rp26
(dp27
g20
I1
sS'_max_cache'
p28
NsS'_item_cache'
p29
NsS'_Nr_cache'
p30
NsbsS'_bins'
p31
I2
sS'_divisor'
p32
F2.0
sbs(g9
S'the'
p33
tp34
g0
(g15
g2
Ntp35
Rp36
(dp37
g19
F0.5
sg20
I1
sg21
g0
(g22
g23
(dp38
NI1
stp39
Rp40
(dp41
g20
I1
sg28
Nsg29
Nsg30
Nsbsg31
I2
sg32
F2.0
sbs(g10
S'not'
p42
tp43
g0
(g15
g2
Ntp44
Rp45
(dp46
g19
F0.5
sg20
I1
sg21
g0
(g22
g23
(dp47
NI1
stp48
Rp49
(dp50
g20
I1
sg28
Nsg29
Nsg30
Nsbsg31
I2
sg32
F2.0
sbs(g10
S'overjoyed'
p51
tp52
g0
(g15
g2
Ntp53
Rp54
(dp55
g19
F0.5
sg20
I1
sg21
g0
(g22
g23
(dp56
I01
I1
stp57
Rp58
(dp59
g20
I1
sg28
Nsg29
Nsg30
Nsbsg31
I2
sg32
F2.0
sbs(g8
S'excited'
p60
tp61
g0
(g15
g2
Ntp62
Rp63
(dp64
g19
F0.5
sg20
I1
sg21
g0
(g22
g23
(dp65
NI1
stp66
Rp67
(dp68
g20
I1
sg28
Nsg29
Nsg30
Nsbsg31
I2
sg32
F2.0
sbs(g10
S'doing'
p69
tp70
g0
(g15
g2
Ntp71
Rp72
(dp73
g19
F0.5
sg20
I1
sg21
g0
(g22
g23
(dp74
NI1
stp75
Rp76
(dp77
g20
I1
sg28
Nsg29
Nsg30
Nsbsg31
I2
sg32
F2.0
sbs(g9
S'happy'
p78
tp79
g0
(g15
g2
Ntp80
Rp81
(dp82
g19
F0.5
sg20
I1
sg21
g0
(g22
g23
(dp83
NI1
stp84
Rp85
(dp86
g20
I1
sg28
Nsg29
Nsg30
Nsbsg31
I2
sg32
F2.0
sbs(g10
S'do'
p87
tp88
g0
(g15
g2
Ntp89
Rp90
(dp91
g19
F0.5
sg20
I1
sg21
g0
(g22
g23
(dp92
I01
I1
stp93
Rp94
(dp95
g20
I1
sg28
Nsg29
Nsg30
Nsbsg31
I2
sg32
F2.0
sbs(g9
g87
tp96
g0
(g15
g2
Ntp97
Rp98
(dp99
g19
F0.5
sg20
I1
sg21
g0
(g22
g23
(dp100
NI1
stp101
Rp102
(dp103
g20
I1
sg28
Nsg29
Nsg30
Nsbsg31
I2
sg32
F2.0
sbs(g8
S'trees'
p104
tp105
g0
(g15
g2
Ntp106
Rp107
(dp108
g19
F0.5
sg20
I1
sg21
g0
(g22
g23
(dp109
I01
I1
stp110
Rp111
(dp112
g20
I1
sg28
Nsg29
Nsg30
Nsbsg31
I2
sg32
F2.0
sbs(g9
S'That'
p113
tp114
g0
(g15
g2
Ntp115
Rp116
(dp117
g19
F0.5
sg20
I1
sg21
g0
(g22
g23
(dp118
NI1
stp119
Rp120
(dp121
g20
I1
sg28
Nsg29
Nsg30
Nsbsg31
I2
sg32
F2.0
sbs(g10
S'trees'
p122
tp123
g0
(g15
g2
Ntp124
Rp125
(dp126
g19
F0.5
sg20
I1
sg21
g0
(g22
g23
(dp127
I01
I1
stp128
Rp129
(dp130
g20
I1
sg28
Nsg29
Nsg30
Nsbsg31
I2
sg32
F2.0
sbs(g10
g13
tp131
g0
(g15
g2
Ntp132
Rp133
(dp134
g19
F0.5
sg20
I1
sg21
g0
(g22
g23
(dp135
I01
I1
stp136
Rp137
(dp138
g20
I1
sg28
Nsg29
Nsg30
Nsbsg31
I2
sg32
F2.0
sbs(g8
S'of'
p139
tp140
g0
(g15
g2
Ntp141
Rp142
(dp143
g19
F0.5
sg20
I1
sg21
g0
(g22
g23
(dp144
I01
I1
stp145
Rp146
(dp147
g20
I1
sg28
Nsg29
Nsg30
Nsbsg31
I2
sg32
F2.0
sbs(g9
S'?'
p148
tp149
g0
(g15
g2
Ntp150
Rp151
(dp152
g19
F0.5
sg20
I1
sg21
g0
(g22
g23
(dp153
NI1
stp154
Rp155
(dp156
g20
I1
sg28
Nsg29
Nsg30
Nsbsg31
I2
sg32
F2.0
sbs(g10
g148
tp157
g0
(g15
g2
Ntp158
Rp159
(dp160
g19
F0.5
sg20
I1
sg21
g0
(g22
g23
(dp161
NI1
stp162
Rp163
(dp164
g20
I1
sg28
Nsg29
Nsg30
Nsbsg31
I2
sg32
F2.0
sbs(g10
S'done'
p165
tp166
g0
(g15
g2
Ntp167
Rp168
(dp169
g19
F0.5
sg20
I1
sg21
g0
(g22
g23
(dp170
I01
I1
stp171
Rp172
(dp173
g20
I1
sg28
Nsg29
Nsg30
Nsbsg31
I2
sg32
F2.0
sbs(g8
S'sentence'
p174
tp175
g0
(g15
g2
Ntp176
Rp177
(dp178
g19
F0.5
sg20
I1
sg21
g0
(g22
g23
(dp179
NI1
stp180
Rp181
(dp182
g20
I1
sg28
Nsg29
Nsg30
Nsbsg31
I2
sg32
F2.0
sbs(g9
S'whole'
p183
tp184
g0
(g15
g2
Ntp185
Rp186
(dp187
g19
F0.5
sg20
I1
sg21
g0
(g22
g23
(dp188
I01
I1
stp189
Rp190
(dp191
g20
I1
sg28
Nsg29
Nsg30
Nsbsg31
I2
sg32
F2.0
sbs(g8
S'm'
p192
tp193
g0
(g15
g2
Ntp194
Rp195
(dp196
g19
F0.5
sg20
I1
sg21
g0
(g22
g23
(dp197
NI1
stp198
Rp199
(dp200
g20
I1
sg28
Nsg29
Nsg30
Nsbsg31
I2
sg32
F2.0
sbs(g10
S'testing'
p201
tp202
g0
(g15
g2
Ntp203
Rp204
(dp205
g19
F0.5
sg20
I1
sg21
g0
(g22
g23
(dp206
I01
I1
stp207
Rp208
(dp209
g20
I1
sg28
Nsg29
Nsg30
Nsbsg31
I2
sg32
F2.0
sbs(g9
g13
tp210
g0
(g15
g2
Ntp211
Rp212
(dp213
g19
F0.5
sg20
I1
sg21
g0
(g22
g23
(dp214
NI1
stp215
Rp216
(dp217
g20
I1
sg28
Nsg29
Nsg30
Nsbsg31
I2
sg32
F2.0
sbs(g10
S'all'
p218
tp219
g0
(g15
g2
Ntp220
Rp221
(dp222
g19
F0.5
sg20
I1
sg21
g0
(g22
g23
(dp223
NI1
stp224
Rp225
(dp226
g20
I1
sg28
Nsg29
Nsg30
Nsbsg31
I2
sg32
F2.0
sbs(g9
S'.'
p227
tp228
g0
(g15
g2
Ntp229
Rp230
(dp231
g19
F0.5
sg20
I1
sg21
g0
(g22
g23
(dp232
I01
I1
stp233
Rp234
(dp235
g20
I1
sg28
Nsg29
Nsg30
Nsbsg31
I2
sg32
F2.0
sbs(g8
S'this'
p236
tp237
g0
(g15
g2
Ntp238
Rp239
(dp240
g19
F0.5
sg20
I1
sg21
g0
(g22
g23
(dp241
I01
I1
stp242
Rp243
(dp244
g20
I1
sg28
Nsg29
Nsg30
Nsbsg31
I2
sg32
F2.0
sbs(g8
S'hate'
p245
tp246
g0
(g15
g2
Ntp247
Rp248
(dp249
g19
F0.5
sg20
I1
sg21
g0
(g22
g23
(dp250
I01
I1
stp251
Rp252
(dp253
g20
I1
sg28
Nsg29
Nsg30
Nsbsg31
I2
sg32
F2.0
sbs(g10
g245
tp254
g0
(g15
g2
Ntp255
Rp256
(dp257
g19
F0.5
sg20
I1
sg21
g0
(g22
g23
(dp258
NI1
stp259
Rp260
(dp261
g20
I1
sg28
Nsg29
Nsg30
Nsbsg31
I2
sg32
F2.0
sbs(g10
g113
tp262
g0
(g15
g2
Ntp263
Rp264
(dp265
g19
F0.5
sg20
I1
sg21
g0
(g22
g23
(dp266
I01
I1
stp267
Rp268
(dp269
g20
I1
sg28
Nsg29
Nsg30
Nsbsg31
I2
sg32
F2.0
sbs(g10
S'I'
p270
tp271
g0
(g15
g2
Ntp272
Rp273
(dp274
g19
F0.5
sg20
I1
sg21
g0
(g22
g23
(dp275
I01
I1
stp276
Rp277
(dp278
g20
I1
sg28
Nsg29
Nsg30
Nsbsg31
I2
sg32
F2.0
sbs(g9
S'This'
p279
tp280
g0
(g15
g2
Ntp281
Rp282
(dp283
g19
F0.5
sg20
I1
sg21
g0
(g22
g23
(dp284
I01
I1
stp285
Rp286
(dp287
g20
I1
sg28
Nsg29
Nsg30
Nsbsg31
I2
sg32
F2.0
sbs(g10
g139
tp288
g0
(g15
g2
Ntp289
Rp290
(dp291
g19
F0.5
sg20
I1
sg21
g0
(g22
g23
(dp292
NI1
stp293
Rp294
(dp295
g20
I1
sg28
Nsg29
Nsg30
Nsbsg31
I2
sg32
F2.0
sbs(g8
S'Now'
p296
tp297
g0
(g15
g2
Ntp298
Rp299
(dp300
g19
F0.5
sg20
I1
sg21
g0
(g22
g23
(dp301
I01
I1
stp302
Rp303
(dp304
g20
I1
sg28
Nsg29
Nsg30
Nsbsg31
I2
sg32
F2.0
sbs(g8
g165
tp305
g0
(g15
g2
Ntp306
Rp307
(dp308
g19
F0.5
sg20
I1
sg21
g0
(g22
g23
(dp309
NI1
stp310
Rp311
(dp312
g20
I1
sg28
Nsg29
Nsg30
Nsbsg31
I2
sg32
F2.0
sbs(g10
S'Paint'
p313
tp314
g0
(g15
g2
Ntp315
Rp316
(dp317
g19
F0.5
sg20
I1
sg21
g0
(g22
g23
(dp318
I01
I1
stp319
Rp320
(dp321
g20
I1
sg28
Nsg29
Nsg30
Nsbsg31
I2
sg32
F2.0
sbs(g8
S'This'
p322
tp323
g0
(g15
g2
Ntp324
Rp325
(dp326
g19
F0.5
sg20
I1
sg21
g0
(g22
g23
(dp327
I01
I1
stp328
Rp329
(dp330
g20
I1
sg28
Nsg29
Nsg30
Nsbsg31
I2
sg32
F2.0
sbs(g10
S'working'
p331
tp332
g0
(g15
g2
Ntp333
Rp334
(dp335
g19
F0.5
sg20
I1
sg21
g0
(g22
g23
(dp336
NI1
stp337
Rp338
(dp339
g20
I1
sg28
Nsg29
Nsg30
Nsbsg31
I2
sg32
F2.0
sbs(g10
S'get'
p340
tp341
g0
(g15
g2
Ntp342
Rp343
(dp344
g19
F0.5
sg20
I1
sg21
g0
(g22
g23
(dp345
I01
I1
stp346
Rp347
(dp348
g20
I1
sg28
Nsg29
Nsg30
Nsbsg31
I2
sg32
F2.0
sbs(g10
S'this'
p349
tp350
g0
(g15
g2
Ntp351
Rp352
(dp353
g19
F0.5
sg20
I1
sg21
g0
(g22
g23
(dp354
I01
I1
stp355
Rp356
(dp357
g20
I1
sg28
Nsg29
Nsg30
Nsbsg31
I2
sg32
F2.0
sbs(g9
g236
tp358
g0
(g15
g2
Ntp359
Rp360
(dp361
g19
F0.5
sg20
I1
sg21
g0
(g22
g23
(dp362
NI1
stp363
Rp364
(dp365
g20
I1
sg28
Nsg29
Nsg30
Nsbsg31
I2
sg32
F2.0
sbs(g9
S'file'
p366
tp367
g0
(g15
g2
Ntp368
Rp369
(dp370
g19
F0.5
sg20
I1
sg21
g0
(g22
g23
(dp371
I01
I1
stp372
Rp373
(dp374
g20
I1
sg28
Nsg29
Nsg30
Nsbsg31
I2
sg32
F2.0
sbs(g10
g366
tp375
g0
(g15
g2
Ntp376
Rp377
(dp378
g19
F0.5
sg20
I1
sg21
g0
(g22
g23
(dp379
NI1
stp380
Rp381
(dp382
g20
I1
sg28
Nsg29
Nsg30
Nsbsg31
I2
sg32
F2.0
sbs(g8
S'rather'
p383
tp384
g0
(g15
g2
Ntp385
Rp386
(dp387
g19
F0.5
sg20
I1
sg21
g0
(g22
g23
(dp388
NI1
stp389
Rp390
(dp391
g20
I1
sg28
Nsg29
Nsg30
Nsbsg31
I2
sg32
F2.0
sbs(g10
g296
tp392
g0
(g15
g2
Ntp393
Rp394
(dp395
g19
F0.5
sg20
I1
sg21
g0
(g22
g23
(dp396
NI1
stp397
Rp398
(dp399
g20
I1
sg28
Nsg29
Nsg30
Nsbsg31
I2
sg32
F2.0
sbs(g8
S'Why'
p400
tp401
g0
(g15
g2
Ntp402
Rp403
(dp404
g19
F0.5
sg20
I1
sg21
g0
(g22
g23
(dp405
I01
I1
stp406
Rp407
(dp408
g20
I1
sg28
Nsg29
Nsg30
Nsbsg31
I2
sg32
F2.0
sbs(g8
S'burn'
p409
tp410
g0
(g15
g2
Ntp411
Rp412
(dp413
g19
F0.5
sg20
I1
sg21
g0
(g22
g23
(dp414
I01
I1
stp415
Rp416
(dp417
g20
I1
sg28
Nsg29
Nsg30
Nsbsg31
I2
sg32
F2.0
sbs(g8
g183
tp418
g0
(g15
g2
Ntp419
Rp420
(dp421
g19
F0.5
sg20
I1
sg21
g0
(g22
g23
(dp422
NI1
stp423
Rp424
(dp425
g20
I1
sg28
Nsg29
Nsg30
Nsbsg31
I2
sg32
F2.0
sbs(g9
S'difficult'
p426
tp427
g0
(g15
g2
Ntp428
Rp429
(dp430
g19
F0.5
sg20
I1
sg21
g0
(g22
g23
(dp431
NI1
stp432
Rp433
(dp434
g20
I1
sg28
Nsg29
Nsg30
Nsbsg31
I2
sg32
F2.0
sbs(g10
S'so'
p435
tp436
g0
(g15
g2
Ntp437
Rp438
(dp439
g19
F0.5
sg20
I1
sg21
g0
(g22
g23
(dp440
I01
I1
stp441
Rp442
(dp443
g20
I1
sg28
Nsg29
Nsg30
Nsbsg31
I2
sg32
F2.0
sbs(g10
g426
tp444
g0
(g15
g2
Ntp445
Rp446
(dp447
g19
F0.5
sg20
I1
sg21
g0
(g22
g23
(dp448
NI1
stp449
Rp450
(dp451
g20
I1
sg28
Nsg29
Nsg30
Nsbsg31
I2
sg32
F2.0
sbs(g8
g340
tp452
g0
(g15
g2
Ntp453
Rp454
(dp455
g19
F0.5
sg20
I1
sg21
g0
(g22
g23
(dp456
NI1
stp457
Rp458
(dp459
g20
I1
sg28
Nsg29
Nsg30
Nsbsg31
I2
sg32
F2.0
sbs(g9
S'!'
p460
tp461
g0
(g15
g2
Ntp462
Rp463
(dp464
g19
F0.5
sg20
I1
sg21
g0
(g22
g23
(dp465
NI1
stp466
Rp467
(dp468
g20
I1
sg28
Nsg29
Nsg30
Nsbsg31
I2
sg32
F2.0
sbs(g9
g296
tp469
g0
(g15
g2
Ntp470
Rp471
(dp472
g19
F0.5
sg20
I1
sg21
g0
(g22
g23
(dp473
NI1
stp474
Rp475
(dp476
g20
I1
sg28
Nsg29
Nsg30
Nsbsg31
I2
sg32
F2.0
sbs(g8
g366
tp477
g0
(g15
g2
Ntp478
Rp479
(dp480
g19
F0.5
sg20
I1
sg21
g0
(g22
g23
(dp481
NI1
stp482
Rp483
(dp484
g20
I1
sg28
Nsg29
Nsg30
Nsbsg31
I2
sg32
F2.0
sbs(g10
S'to'
p485
tp486
g0
(g15
g2
Ntp487
Rp488
(dp489
g19
F0.5
sg20
I1
sg21
g0
(g22
g23
(dp490
I01
I1
stp491
Rp492
(dp493
g20
I1
sg28
Nsg29
Nsg30
Nsbsg31
I2
sg32
F2.0
sbs(g10
g183
tp494
g0
(g15
g2
Ntp495
Rp496
(dp497
g19
F0.5
sg20
I1
sg21
g0
(g22
g23
(dp498
NI1
stp499
Rp500
(dp501
g20
I1
sg28
Nsg29
Nsg30
Nsbsg31
I2
sg32
F2.0
sbs(g8
g485
tp502
g0
(g15
g2
Ntp503
Rp504
(dp505
g19
F0.5
sg20
I1
sg21
g0
(g22
g23
(dp506
NI1
stp507
Rp508
(dp509
g20
I1
sg28
Nsg29
Nsg30
Nsbsg31
I2
sg32
F2.0
sbs(g10
g383
tp510
g0
(g15
g2
Ntp511
Rp512
(dp513
g19
F0.5
sg20
I1
sg21
g0
(g22
g23
(dp514
NI1
stp515
Rp516
(dp517
g20
I1
sg28
Nsg29
Nsg30
Nsbsg31
I2
sg32
F2.0
sbs(g9
g218
tp518
g0
(g15
g2
Ntp519
Rp520
(dp521
g19
F0.5
sg20
I1
sg21
g0
(g22
g23
(dp522
NI1
stp523
Rp524
(dp525
g20
I1
sg28
Nsg29
Nsg30
Nsbsg31
I2
sg32
F2.0
sbs(g8
S"'"
p526
tp527
g0
(g15
g2
Ntp528
Rp529
(dp530
g19
F0.5
sg20
I1
sg21
g0
(g22
g23
(dp531
NI1
stp532
Rp533
(dp534
g20
I1
sg28
Nsg29
Nsg30
Nsbsg31
I2
sg32
F2.0
sbs(g8
g33
tp535
g0
(g15
g2
Ntp536
Rp537
(dp538
g19
F0.5
sg20
I1
sg21
g0
(g22
g23
(dp539
I01
I1
stp540
Rp541
(dp542
g20
I1
sg28
Nsg29
Nsg30
Nsbsg31
I2
sg32
F2.0
sbs(g8
S'Everybody'
p543
tp544
g0
(g15
g2
Ntp545
Rp546
(dp547
g19
F0.5
sg20
I1
sg21
g0
(g22
g23
(dp548
NI1
stp549
Rp550
(dp551
g20
I1
sg28
Nsg29
Nsg30
Nsbsg31
I2
sg32
F2.0
sbs(g9
g165
tp552
g0
(g15
g2
Ntp553
Rp554
(dp555
g19
F0.5
sg20
I1
sg21
g0
(g22
g23
(dp556
NI1
stp557
Rp558
(dp559
g20
I1
sg28
Nsg29
Nsg30
Nsbsg31
I2
sg32
F2.0
sbs(g8
S'sad'
p560
tp561
g0
(g15
g2
Ntp562
Rp563
(dp564
g19
F0.5
sg20
I1
sg21
g0
(g22
g23
(dp565
NI1
stp566
Rp567
(dp568
g20
I1
sg28
Nsg29
Nsg30
Nsbsg31
I2
sg32
F2.0
sbs(g10
g560
tp569
g0
(g15
g2
Ntp570
Rp571
(dp572
g19
F0.5
sg20
I1
sg21
g0
(g22
g23
(dp573
I01
I1
stp574
Rp575
(dp576
g20
I1
sg28
Nsg29
Nsg30
Nsbsg31
I2
sg32
F2.0
sbs(g10
S's'
p577
tp578
g0
(g15
g2
Ntp579
Rp580
(dp581
g19
F0.5
sg20
I1
sg21
g0
(g22
g23
(dp582
I01
I1
stp583
Rp584
(dp585
g20
I1
sg28
Nsg29
Nsg30
Nsbsg31
I2
sg32
F2.0
sbs(g8
g577
tp586
g0
(g15
g2
Ntp587
Rp588
(dp589
g19
F0.5
sg20
I1
sg21
g0
(g22
g23
(dp590
NI1
stp591
Rp592
(dp593
g20
I1
sg28
Nsg29
Nsg30
Nsbsg31
I2
sg32
F2.0
sbs(g9
S'so'
p594
tp595
g0
(g15
g2
Ntp596
Rp597
(dp598
g19
F0.5
sg20
I1
sg21
g0
(g22
g23
(dp599
NI1
stp600
Rp601
(dp602
g20
I1
sg28
Nsg29
Nsg30
Nsbsg31
I2
sg32
F2.0
sbs(g9
g245
tp603
g0
(g15
g2
Ntp604
Rp605
(dp606
g19
F0.5
sg20
I1
sg21
g0
(g22
g23
(dp607
NI1
stp608
Rp609
(dp610
g20
I1
sg28
Nsg29
Nsg30
Nsbsg31
I2
sg32
F2.0
sbs(g10
S'a'
p611
tp612
g0
(g15
g2
Ntp613
Rp614
(dp615
g19
F0.5
sg20
I1
sg21
g0
(g22
g23
(dp616
NI1
stp617
Rp618
(dp619
g20
I1
sg28
Nsg29
Nsg30
Nsbsg31
I2
sg32
F2.0
sbs(g8
g611
tp620
g0
(g15
g2
Ntp621
Rp622
(dp623
g19
F0.5
sg20
I1
sg21
g0
(g22
g23
(dp624
NI1
stp625
Rp626
(dp627
g20
I1
sg28
Nsg29
Nsg30
Nsbsg31
I2
sg32
F2.0
sbs(g10
S'little'
p628
tp629
g0
(g15
g2
Ntp630
Rp631
(dp632
g19
F0.5
sg20
I1
sg21
g0
(g22
g23
(dp633
I01
I1
stp634
Rp635
(dp636
g20
I1
sg28
Nsg29
Nsg30
Nsbsg31
I2
sg32
F2.0
sbs(g8
g628
tp637
g0
(g15
g2
Ntp638
Rp639
(dp640
g19
F0.5
sg20
I1
sg21
g0
(g22
g23
(dp641
NI1
stp642
Rp643
(dp644
g20
I1
sg28
Nsg29
Nsg30
Nsbsg31
I2
sg32
F2.0
sbs(g10
g227
tp645
g0
(g15
g2
Ntp646
Rp647
(dp648
g19
F0.5
sg20
I1
sg21
g0
(g22
g23
(dp649
I01
I1
stp650
Rp651
(dp652
g20
I1
sg28
Nsg29
Nsg30
Nsbsg31
I2
sg32
F2.0
sbs(g10
g33
tp653
g0
(g15
g2
Ntp654
Rp655
(dp656
g19
F0.5
sg20
I1
sg21
g0
(g22
g23
(dp657
NI1
stp658
Rp659
(dp660
g20
I1
sg28
Nsg29
Nsg30
Nsbsg31
I2
sg32
F2.0
sbs(g10
g526
tp661
g0
(g15
g2
Ntp662
Rp663
(dp664
g19
F0.5
sg20
I1
sg21
g0
(g22
g23
(dp665
I01
I1
stp666
Rp667
(dp668
g20
I1
sg28
Nsg29
Nsg30
Nsbsg31
I2
sg32
F2.0
sbs(g8
g148
tp669
g0
(g15
g2
Ntp670
Rp671
(dp672
g19
F0.5
sg20
I1
sg21
g0
(g22
g23
(dp673
I01
I1
stp674
Rp675
(dp676
g20
I1
sg28
Nsg29
Nsg30
Nsbsg31
I2
sg32
F2.0
sbs(g9
g409
tp677
g0
(g15
g2
Ntp678
Rp679
(dp680
g19
F0.5
sg20
I1
sg21
g0
(g22
g23
(dp681
NI1
stp682
Rp683
(dp684
g20
I1
sg28
Nsg29
Nsg30
Nsbsg31
I2
sg32
F2.0
sbs(g10
S'makes'
p685
tp686
g0
(g15
g2
Ntp687
Rp688
(dp689
g19
F0.5
sg20
I1
sg21
g0
(g22
g23
(dp690
I01
I1
stp691
Rp692
(dp693
g20
I1
sg28
Nsg29
Nsg30
Nsbsg31
I2
sg32
F2.0
sbs(g9
g69
tp694
g0
(g15
g2
Ntp695
Rp696
(dp697
g19
F0.5
sg20
I1
sg21
g0
(g22
g23
(dp698
NI1
stp699
Rp700
(dp701
g20
I1
sg28
Nsg29
Nsg30
Nsbsg31
I2
sg32
F2.0
sbs(g8
g42
tp702
g0
(g15
g2
Ntp703
Rp704
(dp705
g19
F0.5
sg20
I1
sg21
g0
(g22
g23
(dp706
I01
I1
stp707
Rp708
(dp709
g20
I1
sg28
Nsg29
Nsg30
Nsbsg31
I2
sg32
F2.0
sbs(g10
g78
tp710
g0
(g15
g2
Ntp711
Rp712
(dp713
g19
F0.5
sg20
I1
sg21
g0
(g22
g23
(dp714
I01
I1
stp715
Rp716
(dp717
g20
I1
sg28
Nsg29
Nsg30
Nsbsg31
I2
sg32
F2.0
sbs(g8
g594
tp718
g0
(g15
g2
Ntp719
Rp720
(dp721
g19
F0.5
sg20
I1
sg21
g0
(g22
g23
(dp722
I01
I1
stp723
Rp724
(dp725
g20
I1
sg28
Nsg29
Nsg30
Nsbsg31
I2
sg32
F2.0
sbs(g9
g560
tp726
g0
(g15
g2
Ntp727
Rp728
(dp729
g19
F0.5
sg20
I1
sg21
g0
(g22
g23
(dp730
NI1
stp731
Rp732
(dp733
g20
I1
sg28
Nsg29
Nsg30
Nsbsg31
I2
sg32
F2.0
sbs(g8
g69
tp734
g0
(g15
g2
Ntp735
Rp736
(dp737
g19
F0.5
sg20
I1
sg21
g0
(g22
g23
(dp738
I01
I1
stp739
Rp740
(dp741
g20
I1
sg28
Nsg29
Nsg30
Nsbsg31
I2
sg32
F2.0
sbs(g10
g174
tp742
g0
(g15
g2
Ntp743
Rp744
(dp745
g19
F0.5
sg20
I1
sg21
g0
(g22
g23
(dp746
NI1
stp747
Rp748
(dp749
g20
I1
sg28
Nsg29
Nsg30
Nsbsg31
I2
sg32
F2.0
sbs(g8
g113
tp750
g0
(g15
g2
Ntp751
Rp752
(dp753
g19
F0.5
sg20
I1
sg21
g0
(g22
g23
(dp754
NI1
stp755
Rp756
(dp757
g20
I1
sg28
Nsg29
Nsg30
Nsbsg31
I2
sg32
F2.0
sbs(g9
g526
tp758
g0
(g15
g2
Ntp759
Rp760
(dp761
g19
F0.5
sg20
I1
sg21
g0
(g22
g23
(dp762
NI1
stp763
Rp764
(dp765
g20
I1
sg28
Nsg29
Nsg30
Nsbsg31
I2
sg32
F2.0
sbs(g9
S'is'
p766
tp767
g0
(g15
g2
Ntp768
Rp769
(dp770
g19
F0.5
sg20
I1
sg21
g0
(g22
g23
(dp771
I01
I1
stp772
Rp773
(dp774
g20
I1
sg28
Nsg29
Nsg30
Nsbsg31
I2
sg32
F2.0
sbs(g8
S'testing'
p775
tp776
g0
(g15
g2
Ntp777
Rp778
(dp779
g19
F0.5
sg20
I1
sg21
g0
(g22
g23
(dp780
I01
I1
stp781
Rp782
(dp783
g20
I1
sg28
Nsg29
Nsg30
Nsbsg31
I2
sg32
F2.0
sbs(g10
g60
tp784
g0
(g15
g2
Ntp785
Rp786
(dp787
g19
F0.5
sg20
I1
sg21
g0
(g22
g23
(dp788
I01
I1
stp789
Rp790
(dp791
g20
I1
sg28
Nsg29
Nsg30
Nsbsg31
I2
sg32
F2.0
sbs(g10
S'This'
p792
tp793
g0
(g15
g2
Ntp794
Rp795
(dp796
g19
F0.5
sg20
I1
sg21
g0
(g22
g23
(dp797
I01
I1
stp798
Rp799
(dp800
g20
I1
sg28
Nsg29
Nsg30
Nsbsg31
I2
sg32
F2.0
sbs(g8
g426
tp801
g0
(g15
g2
Ntp802
Rp803
(dp804
g19
F0.5
sg20
I1
sg21
g0
(g22
g23
(dp805
I01
I1
stp806
Rp807
(dp808
g20
I1
sg28
Nsg29
Nsg30
Nsbsg31
I2
sg32
F2.0
sbs(g9
g270
tp809
g0
(g15
g2
Ntp810
Rp811
(dp812
g19
F0.5
sg20
I1
sg21
g0
(g22
g23
(dp813
NI1
stp814
Rp815
(dp816
g20
I1
sg28
Nsg29
Nsg30
Nsbsg31
I2
sg32
F2.0
sbs(g9
g628
tp817
g0
(g15
g2
Ntp818
Rp819
(dp820
g19
F0.5
sg20
I1
sg21
g0
(g22
g23
(dp821
NI1
stp822
Rp823
(dp824
g20
I1
sg28
Nsg29
Nsg30
Nsbsg31
I2
sg32
F2.0
sbs(g9
g139
tp825
g0
(g15
g2
Ntp826
Rp827
(dp828
g19
F0.5
sg20
I1
sg21
g0
(g22
g23
(dp829
NI1
stp830
Rp831
(dp832
g20
I1
sg28
Nsg29
Nsg30
Nsbsg31
I2
sg32
F2.0
sbs(g8
g331
tp833
g0
(g15
g2
Ntp834
Rp835
(dp836
g19
F0.5
sg20
I1
sg21
g0
(g22
g23
(dp837
I01
I1
stp838
Rp839
(dp840
g20
I1
sg28
Nsg29
Nsg30
Nsbsg31
I2
sg32
F2.0
sbs(g10
S'me'
p841
tp842
g0
(g15
g2
Ntp843
Rp844
(dp845
g19
F0.5
sg20
I1
sg21
g0
(g22
g23
(dp846
I01
I1
stp847
Rp848
(dp849
g20
I1
sg28
Nsg29
Nsg30
Nsbsg31
I2
sg32
F2.0
sbs(g9
g400
tp850
g0
(g15
g2
Ntp851
Rp852
(dp853
g19
F0.5
sg20
I1
sg21
g0
(g22
g23
(dp854
NI1
stp855
Rp856
(dp857
g20
I1
sg28
Nsg29
Nsg30
Nsbsg31
I2
sg32
F2.0
sbs(g9
g841
tp858
g0
(g15
g2
Ntp859
Rp860
(dp861
g19
F0.5
sg20
I1
sg21
g0
(g22
g23
(dp862
NI1
stp863
Rp864
(dp865
g20
I1
sg28
Nsg29
Nsg30
Nsbsg31
I2
sg32
F2.0
sbs(g8
g841
tp866
g0
(g15
g2
Ntp867
Rp868
(dp869
g19
F0.5
sg20
I1
sg21
g0
(g22
g23
(dp870
NI1
stp871
Rp872
(dp873
g20
I1
sg28
Nsg29
Nsg30
Nsbsg31
I2
sg32
F2.0
sbs(g8
g87
tp874
g0
(g15
g2
Ntp875
Rp876
(dp877
g19
F0.5
sg20
I1
sg21
g0
(g22
g23
(dp878
NI1
stp879
Rp880
(dp881
g20
I1
sg28
Nsg29
Nsg30
Nsbsg31
I2
sg32
F2.0
sbs(g8
S'some'
p882
tp883
g0
(g15
g2
Ntp884
Rp885
(dp886
g19
F0.5
sg20
I1
sg21
g0
(g22
g23
(dp887
NI1
stp888
Rp889
(dp890
g20
I1
sg28
Nsg29
Nsg30
Nsbsg31
I2
sg32
F2.0
sbs(g9
g174
tp891
g0
(g15
g2
Ntp892
Rp893
(dp894
g19
F0.5
sg20
I1
sg21
g0
(g22
g23
(dp895
I01
I1
stp896
Rp897
(dp898
g20
I1
sg28
Nsg29
Nsg30
Nsbsg31
I2
sg32
F2.0
sbs(g9
g685
tp899
g0
(g15
g2
Ntp900
Rp901
(dp902
g19
F0.5
sg20
I1
sg21
g0
(g22
g23
(dp903
NI1
stp904
Rp905
(dp906
g20
I1
sg28
Nsg29
Nsg30
Nsbsg31
I2
sg32
F2.0
sbs(g8
g270
tp907
g0
(g15
g2
Ntp908
Rp909
(dp910
g19
F0.5
sg20
I1
sg21
g0
(g22
g23
(dp911
I01
I1
stp912
Rp913
(dp914
g20
I1
sg28
Nsg29
Nsg30
Nsbsg31
I2
sg32
F2.0
sbs(g9
g192
tp915
g0
(g15
g2
Ntp916
Rp917
(dp918
g19
F0.5
sg20
I1
sg21
g0
(g22
g23
(dp919
NI1
stp920
Rp921
(dp922
g20
I1
sg28
Nsg29
Nsg30
Nsbsg31
I2
sg32
F2.0
sbs(g8
g685
tp923
g0
(g15
g2
Ntp924
Rp925
(dp926
g19
F0.5
sg20
I1
sg21
g0
(g22
g23
(dp927
NI1
stp928
Rp929
(dp930
g20
I1
sg28
Nsg29
Nsg30
Nsbsg31
I2
sg32
F2.0
sbs(g10
g543
tp931
g0
(g15
g2
Ntp932
Rp933
(dp934
g19
F0.5
sg20
I1
sg21
g0
(g22
g23
(dp935
I01
I1
stp936
Rp937
(dp938
g20
I1
sg28
Nsg29
Nsg30
Nsbsg31
I2
sg32
F2.0
sbs(g10
g409
tp939
g0
(g15
g2
Ntp940
Rp941
(dp942
g19
F0.5
sg20
I1
sg21
g0
(g22
g23
(dp943
NI1
stp944
Rp945
(dp946
g20
I1
sg28
Nsg29
Nsg30
Nsbsg31
I2
sg32
F2.0
sbs(g9
g543
tp947
g0
(g15
g2
Ntp948
Rp949
(dp950
g19
F0.5
sg20
I1
sg21
g0
(g22
g23
(dp951
NI1
stp952
Rp953
(dp954
g20
I1
sg28
Nsg29
Nsg30
Nsbsg31
I2
sg32
F2.0
sbs(g10
g192
tp955
g0
(g15
g2
Ntp956
Rp957
(dp958
g19
F0.5
sg20
I1
sg21
g0
(g22
g23
(dp959
I01
I1
stp960
Rp961
(dp962
g20
I1
sg28
Nsg29
Nsg30
Nsbsg31
I2
sg32
F2.0
sbs(g9
g104
tp963
g0
(g15
g2
Ntp964
Rp965
(dp966
g19
F0.5
sg20
I1
sg21
g0
(g22
g23
(dp967
NI1
stp968
Rp969
(dp970
g20
I1
sg28
Nsg29
Nsg30
Nsbsg31
I2
sg32
F2.0
sbs(g10
S'made'
p971
tp972
g0
(g15
g2
Ntp973
Rp974
(dp975
g19
F0.5
sg20
I1
sg21
g0
(g22
g23
(dp976
I01
I1
stp977
Rp978
(dp979
g20
I1
sg28
Nsg29
Nsg30
Nsbsg31
I2
sg32
F2.0
sbs(g8
g218
tp980
g0
(g15
g2
Ntp981
Rp982
(dp983
g19
F0.5
sg20
I1
sg21
g0
(g22
g23
(dp984
I01
I1
stp985
Rp986
(dp987
g20
I1
sg28
Nsg29
Nsg30
Nsbsg31
I2
sg32
F2.0
sbs(g8
g971
tp988
g0
(g15
g2
Ntp989
Rp990
(dp991
g19
F0.5
sg20
I1
sg21
g0
(g22
g23
(dp992
NI1
stp993
Rp994
(dp995
g20
I1
sg28
Nsg29
Nsg30
Nsbsg31
I2
sg32
F2.0
sbs(g9
g882
tp996
g0
(g15
g2
Ntp997
Rp998
(dp999
g19
F0.5
sg20
I1
sg21
g0
(g22
g23
(dp1000
NI1
stp1001
Rp1002
(dp1003
g20
I1
sg28
Nsg29
Nsg30
Nsbsg31
I2
sg32
F2.0
sbs(g8
g51
tp1004
g0
(g15
g2
Ntp1005
Rp1006
(dp1007
g19
F0.5
sg20
I1
sg21
g0
(g22
g23
(dp1008
NI1
stp1009
Rp1010
(dp1011
g20
I1
sg28
Nsg29
Nsg30
Nsbsg31
I2
sg32
F2.0
sbs(g10
S'ecstatic'
p1012
tp1013
g0
(g15
g2
Ntp1014
Rp1015
(dp1016
g19
F0.5
sg20
I1
sg21
g0
(g22
g23
(dp1017
I01
I1
stp1018
Rp1019
(dp1020
g20
I1
sg28
Nsg29
Nsg30
Nsbsg31
I2
sg32
F2.0
sbs(g9
g51
tp1021
g0
(g15
g2
Ntp1022
Rp1023
(dp1024
g19
F0.5
sg20
I1
sg21
g0
(g22
g23
(dp1025
NI1
stp1026
Rp1027
(dp1028
g20
I1
sg28
Nsg29
Nsg30
Nsbsg31
I2
sg32
F2.0
sbs(g10
g460
tp1029
g0
(g15
g2
Ntp1030
Rp1031
(dp1032
g19
F0.5
sg20
I1
sg21
g0
(g22
g23
(dp1033
I01
I1
stp1034
Rp1035
(dp1036
g20
I1
sg28
Nsg29
Nsg30
Nsbsg31
I2
sg32
F2.0
sbs(g8
S'is'
p1037
tp1038
g0
(g15
g2
Ntp1039
Rp1040
(dp1041
g19
F0.5
sg20
I1
sg21
g0
(g22
g23
(dp1042
I01
I1
stp1043
Rp1044
(dp1045
g20
I1
sg28
Nsg29
Nsg30
Nsbsg31
I2
sg32
F2.0
sbs(g10
g882
tp1046
g0
(g15
g2
Ntp1047
Rp1048
(dp1049
g19
F0.5
sg20
I1
sg21
g0
(g22
g23
(dp1050
I01
I1
stp1051
Rp1052
(dp1053
g20
I1
sg28
Nsg29
Nsg30
Nsbsg31
I2
sg32
F2.0
sbs(g8
g227
tp1054
g0
(g15
g2
Ntp1055
Rp1056
(dp1057
g19
F0.5
sg20
I1
sg21
g0
(g22
g23
(dp1058
I01
I1
stp1059
Rp1060
(dp1061
g20
I1
sg28
Nsg29
Nsg30
Nsbsg31
I2
sg32
F2.0
sbs(g9
g42
tp1062
g0
(g15
g2
Ntp1063
Rp1064
(dp1065
g19
F0.5
sg20
I1
sg21
g0
(g22
g23
(dp1066
NI1
stp1067
Rp1068
(dp1069
g20
I1
sg28
Nsg29
Nsg30
Nsbsg31
I2
sg32
F2.0
sbs(g8
S'plain'
p1070
tp1071
g0
(g15
g2
Ntp1072
Rp1073
(dp1074
g19
F0.5
sg20
I1
sg21
g0
(g22
g23
(dp1075
NI1
stp1076
Rp1077
(dp1078
g20
I1
sg28
Nsg29
Nsg30
Nsbsg31
I2
sg32
F2.0
sbs(g9
g313
tp1079
g0
(g15
g2
Ntp1080
Rp1081
(dp1082
g19
F0.5
sg20
I1
sg21
g0
(g22
g23
(dp1083
NI1
stp1084
Rp1085
(dp1086
g20
I1
sg28
Nsg29
Nsg30
Nsbsg31
I2
sg32
F2.0
sbs(g9
g775
tp1087
g0
(g15
g2
Ntp1088
Rp1089
(dp1090
g19
F0.5
sg20
I1
sg21
g0
(g22
g23
(dp1091
NI1
stp1092
Rp1093
(dp1094
g20
I1
sg28
Nsg29
Nsg30
Nsbsg31
I2
sg32
F2.0
sbs(g9
g383
tp1095
g0
(g15
g2
Ntp1096
Rp1097
(dp1098
g19
F0.5
sg20
I1
sg21
g0
(g22
g23
(dp1099
I01
I1
stp1100
Rp1101
(dp1102
g20
I1
sg28
Nsg29
Nsg30
Nsbsg31
I2
sg32
F2.0
sbs(g8
g1012
tp1103
g0
(g15
g2
Ntp1104
Rp1105
(dp1106
g19
F0.5
sg20
I1
sg21
g0
(g22
g23
(dp1107
NI1
stp1108
Rp1109
(dp1110
g20
I1
sg28
Nsg29
Nsg30
Nsbsg31
I2
sg32
F2.0
sbs(g8
g460
tp1111
g0
(g15
g2
Ntp1112
Rp1113
(dp1114
g19
F0.5
sg20
I1
sg21
g0
(g22
g23
(dp1115
NI1
stp1116
Rp1117
(dp1118
g20
I1
sg28
Nsg29
Nsg30
Nsbsg31
I2
sg32
F2.0
sbs(g9
g331
tp1119
g0
(g15
g2
Ntp1120
Rp1121
(dp1122
g19
F0.5
sg20
I1
sg21
g0
(g22
g23
(dp1123
NI1
stp1124
Rp1125
(dp1126
g20
I1
sg28
Nsg29
Nsg30
Nsbsg31
I2
sg32
F2.0
sbs(g9
g340
tp1127
g0
(g15
g2
Ntp1128
Rp1129
(dp1130
g19
F0.5
sg20
I1
sg21
g0
(g22
g23
(dp1131
NI1
stp1132
Rp1133
(dp1134
g20
I1
sg28
Nsg29
Nsg30
Nsbsg31
I2
sg32
F2.0
sbs(g10
g400
tp1135
g0
(g15
g2
Ntp1136
Rp1137
(dp1138
g19
F0.5
sg20
I1
sg21
g0
(g22
g23
(dp1139
NI1
stp1140
Rp1141
(dp1142
g20
I1
sg28
Nsg29
Nsg30
Nsbsg31
I2
sg32
F2.0
sbs(g8
g78
tp1143
g0
(g15
g2
Ntp1144
Rp1145
(dp1146
g19
F0.5
sg20
I1
sg21
g0
(g22
g23
(dp1147
NI1
stp1148
Rp1149
(dp1150
g20
I1
sg28
Nsg29
Nsg30
Nsbsg31
I2
sg32
F2.0
sbs(g10
g1070
tp1151
g0
(g15
g2
Ntp1152
Rp1153
(dp1154
g19
F0.5
sg20
I1
sg21
g0
(g22
g23
(dp1155
NI1
stp1156
Rp1157
(dp1158
g20
I1
sg28
Nsg29
Nsg30
Nsbsg31
I2
sg32
F2.0
sbs(g9
g1070
tp1159
g0
(g15
g2
Ntp1160
Rp1161
(dp1162
g19
F0.5
sg20
I1
sg21
g0
(g22
g23
(dp1163
I01
I1
stp1164
Rp1165
(dp1166
g20
I1
sg28
Nsg29
Nsg30
Nsbsg31
I2
sg32
F2.0
sbs(g10
g1037
tp1167
g0
(g15
g2
Ntp1168
Rp1169
(dp1170
g19
F0.5
sg20
I1
sg21
g0
(g22
g23
(dp1171
NI1
stp1172
Rp1173
(dp1174
g20
I1
sg28
Nsg29
Nsg30
Nsbsg31
I2
sg32
F2.0
sbs(g9
g60
tp1175
g0
(g15
g2
Ntp1176
Rp1177
(dp1178
g19
F0.5
sg20
I1
sg21
g0
(g22
g23
(dp1179
NI1
stp1180
Rp1181
(dp1182
g20
I1
sg28
Nsg29
Nsg30
Nsbsg31
I2
sg32
F2.0
sbs(g9
g611
tp1183
g0
(g15
g2
Ntp1184
Rp1185
(dp1186
g19
F0.5
sg20
I1
sg21
g0
(g22
g23
(dp1187
I01
I1
stp1188
Rp1189
(dp1190
g20
I1
sg28
Nsg29
Nsg30
Nsbsg31
I2
sg32
F2.0
sbs(g9
g577
tp1191
g0
(g15
g2
Ntp1192
Rp1193
(dp1194
g19
F0.5
sg20
I1
sg21
g0
(g22
g23
(dp1195
NI1
stp1196
Rp1197
(dp1198
g20
I1
sg28
Nsg29
Nsg30
Nsbsg31
I2
sg32
F2.0
sbs(g9
g1012
tp1199
g0
(g15
g2
Ntp1200
Rp1201
(dp1202
g19
F0.5
sg20
I1
sg21
g0
(g22
g23
(dp1203
NI1
stp1204
Rp1205
(dp1206
g20
I1
sg28
Nsg29
Nsg30
Nsbsg31
I2
sg32
F2.0
sbs(g9
g485
tp1207
g0
(g15
g2
Ntp1208
Rp1209
(dp1210
g19
F0.5
sg20
I1
sg21
g0
(g22
g23
(dp1211
NI1
stp1212
Rp1213
(dp1214
g20
I1
sg28
Nsg29
Nsg30
Nsbsg31
I2
sg32
F2.0
sbs(g9
g971
tp1215
g0
(g15
g2
Ntp1216
Rp1217
(dp1218
g19
F0.5
sg20
I1
sg21
g0
(g22
g23
(dp1219
NI1
stp1220
Rp1221
(dp1222
g20
I1
sg28
Nsg29
Nsg30
Nsbsg31
I2
sg32
F2.0
sbs(g8
g313
tp1223
g0
(g15
g2
Ntp1224
Rp1225
(dp1226
g19
F0.5
sg20
I1
sg21
g0
(g22
g23
(dp1227
NI1
stp1228
Rp1229
(dp1230
g20
I1
sg28
Nsg29
Nsg30
Nsbsg31
I2
sg32
F2.0
sbssS'_label_probdist'
p1231
g0
(g15
g2
Ntp1232
Rp1233
(dp1234
g19
F0.5
sg20
I3
sg21
g0
(g22
g23
(dp1235
g8
I1
sg9
I1
sg10
I1
stp1236
Rp1237
(dp1238
g20
I3
sg28
Nsg29
(lp1239
(g8
I1
tp1240
a(g9
I1
tp1241
a(g10
I1
tp1242
asg30
Nsbsg31
I3
sg32
F4.5
sbsb.